; Function Attrs: mustprogress nofree norecurse nosync nounwind willreturn memory(argmem: read) uwtable
define hidden noundef range(i32 0, 256) i32 @_ZNK5clang7targets17SystemZTargetInfo17getMinGlobalAlignEmb(ptr nocapture noundef nonnull readonly align 8 dereferenceable(536) %0, i64 %1, i1 noundef zeroext %2) unnamed_addr #6 align 2 {
  %4 = getelementptr inbounds nuw i8, ptr %0, i64 535
  %5 = load i8, ptr %4, align 1
  %6 = trunc i8 %5 to i1
  %.not = xor i1 %6, true
  %brmerge = or i1 %2, %.not
  %7 = getelementptr inbounds i8, ptr %0, i64 61
  %8 = load i8, ptr %7, align 1
  %9 = zext i8 %8 to i32
  %.0 = select i1 %brmerge, i32 %9, i32 0
  ret i32 %.0
}